target datalayout = "e-m:e-p270:32:32-p271:32:32-p272:64:64-i64:64-i128:128-f80:128-n8:16:32:64-S128"
target triple = "x86_64-pc-linux-gnu"

%struct.slurm_msg = type { %struct.sockaddr_storage, ptr, i32, i32, i32, i8, i32, i8, i32, ptr, ptr, i32, ptr, ptr, i16, i8, i16, i16, %struct.forward, ptr, %struct.sockaddr_storage, ptr }
%struct.forward = type { %struct.slurm_node_alias_addrs_t, i16, i16, ptr, i32, i16, i16 }
%struct.slurm_node_alias_addrs_t = type { i64, ptr, ptr, i32, ptr }
%struct.sockaddr_storage = type { i16, [118 x i8], i64 }
%struct.bb_status_req_msg = type { i32, ptr }
%struct.bb_status_resp_msg = type { ptr }
%struct.return_code_msg = type { i32 }

@working_cluster_rec = external global ptr, align 8

; Function Attrs: nounwind uwtable
define dso_local i32 @slurm_load_burst_buffer_stat(i32 noundef %0, ptr noundef %1, ptr noundef %2) #0 {
  %4 = alloca i32, align 4
  %5 = alloca i32, align 4
  %6 = alloca ptr, align 8
  %7 = alloca ptr, align 8
  %8 = alloca i32, align 4
  %9 = alloca %struct.slurm_msg, align 8
  %10 = alloca %struct.slurm_msg, align 8
  %11 = alloca %struct.bb_status_req_msg, align 8
  %12 = alloca ptr, align 8
  %13 = alloca i32, align 4
  store i32 %0, ptr %5, align 4
  store ptr %1, ptr %6, align 8
  store ptr %2, ptr %7, align 8
  call void @llvm.lifetime.start.p0(i64 4, ptr %8) #5
  call void @llvm.lifetime.start.p0(i64 424, ptr %9) #5
  call void @llvm.lifetime.start.p0(i64 424, ptr %10) #5
  call void @llvm.lifetime.start.p0(i64 16, ptr %11) #5
  call void @llvm.lifetime.start.p0(i64 8, ptr %12) #5
  call void @slurm_msg_t_init(ptr noundef %9)
  call void @slurm_msg_t_init(ptr noundef %10)
  %14 = load i32, ptr %5, align 4
  %15 = getelementptr inbounds nuw %struct.bb_status_req_msg, ptr %11, i32 0, i32 0
  store i32 %14, ptr %15, align 8
  %16 = load ptr, ptr %6, align 8
  %17 = getelementptr inbounds nuw %struct.bb_status_req_msg, ptr %11, i32 0, i32 1
  store ptr %16, ptr %17, align 8
  %18 = getelementptr inbounds nuw %struct.slurm_msg, ptr %9, i32 0, i32 16
  store i16 2055, ptr %18, align 4
  %19 = getelementptr inbounds nuw %struct.slurm_msg, ptr %9, i32 0, i32 13
  store ptr %11, ptr %19, align 8
  %20 = load ptr, ptr @working_cluster_rec, align 8
  %21 = call i32 @slurm_send_recv_controller_msg(ptr noundef %9, ptr noundef %10, ptr noundef %20)
  %22 = icmp slt i32 %21, 0
  br i1 %22, label %23, label %24

23:                                               ; preds = %3
  store i32 -1, ptr %4, align 4
  store i32 1, ptr %13, align 4
  br label %63

24:                                               ; preds = %3
  %25 = getelementptr inbounds nuw %struct.slurm_msg, ptr %10, i32 0, i32 16
  %26 = load i16, ptr %25, align 4
  %27 = zext i16 %26 to i32
  switch i32 %27, label %57 [
    i32 2056, label %28
    i32 8001, label %37
  ]

28:                                               ; preds = %24
  %29 = getelementptr inbounds nuw %struct.slurm_msg, ptr %10, i32 0, i32 13
  %30 = load ptr, ptr %29, align 8
  store ptr %30, ptr %12, align 8
  %31 = load ptr, ptr %12, align 8
  %32 = getelementptr inbounds nuw %struct.bb_status_resp_msg, ptr %31, i32 0, i32 0
  %33 = load ptr, ptr %32, align 8
  %34 = load ptr, ptr %7, align 8
  store ptr %33, ptr %34, align 8
  %35 = load ptr, ptr %12, align 8
  %36 = getelementptr inbounds nuw %struct.bb_status_resp_msg, ptr %35, i32 0, i32 0
  store ptr null, ptr %36, align 8
  br label %62

37:                                               ; preds = %24
  %38 = getelementptr inbounds nuw %struct.slurm_msg, ptr %10, i32 0, i32 13
  %39 = load ptr, ptr %38, align 8
  %40 = getelementptr inbounds nuw %struct.return_code_msg, ptr %39, i32 0, i32 0
  %41 = load i32, ptr %40, align 4
  store i32 %41, ptr %8, align 4
  %42 = getelementptr inbounds nuw %struct.slurm_msg, ptr %10, i32 0, i32 13
  %43 = load ptr, ptr %42, align 8
  call void @slurm_free_return_code_msg(ptr noundef %43)
  %44 = load i32, ptr %8, align 4
  %45 = icmp ne i32 %44, 0
  br i1 %45, label %46, label %55

46:                                               ; preds = %37
  br label %47

47:                                               ; preds = %46
  %48 = load i32, ptr %8, align 4
  %49 = call ptr @__errno_location() #6
  store i32 %48, ptr %49, align 4
  %50 = load i32, ptr %8, align 4
  %51 = icmp ne i32 %50, 0
  %52 = select i1 %51, i32 -1, i32 0
  store i32 %52, ptr %4, align 4
  store i32 1, ptr %13, align 4
  br label %63

53:                                               ; No predecessors!
  br label %54

54:                                               ; preds = %53
  br label %55

55:                                               ; preds = %54, %37
  %56 = load ptr, ptr %7, align 8
  store ptr null, ptr %56, align 8
  br label %62

57:                                               ; preds = %24
  br label %58

58:                                               ; preds = %57
  %59 = call ptr @__errno_location() #6
  store i32 1000, ptr %59, align 4
  store i32 -1, ptr %4, align 4
  store i32 1, ptr %13, align 4
  br label %63

60:                                               ; No predecessors!
  br label %61

61:                                               ; preds = %60
  br label %62

62:                                               ; preds = %61, %55, %28
  store i32 0, ptr %4, align 4
  store i32 1, ptr %13, align 4
  br label %63

63:                                               ; preds = %62, %58, %47, %23
  call void @llvm.lifetime.end.p0(i64 8, ptr %12) #5
  call void @llvm.lifetime.end.p0(i64 16, ptr %11) #5
  call void @llvm.lifetime.end.p0(i64 424, ptr %10) #5
  call void @llvm.lifetime.end.p0(i64 424, ptr %9) #5
  call void @llvm.lifetime.end.p0(i64 4, ptr %8) #5
  %64 = load i32, ptr %4, align 4
  ret i32 %64
}