; Function Attrs: nounwind uwtable
define dso_local range(i32 -1, 1) i32 @slurm_load_burst_buffer_stat(i32 noundef %0, ptr noundef %1, ptr noundef writeonly captures(none) %2) local_unnamed_addr #0 {
  %4 = alloca %struct.slurm_msg, align 8
  %5 = alloca %struct.slurm_msg, align 8
  %6 = alloca %struct.bb_status_req_msg, align 8
  call void @llvm.lifetime.start.p0(i64 424, ptr nonnull %4) #9
  call void @llvm.lifetime.start.p0(i64 424, ptr nonnull %5) #9
  call void @llvm.lifetime.start.p0(i64 16, ptr nonnull %6) #9
  call void @slurm_msg_t_init(ptr noundef nonnull %4) #9
  call void @slurm_msg_t_init(ptr noundef nonnull %5) #9
  store i32 %0, ptr %6, align 8
  %7 = getelementptr inbounds nuw i8, ptr %6, i64 8
  store ptr %1, ptr %7, align 8
  %8 = getelementptr inbounds nuw i8, ptr %4, i64 212
  store i16 2055, ptr %8, align 4
  %9 = getelementptr inbounds nuw i8, ptr %4, i64 200
  store ptr %6, ptr %9, align 8
  %10 = load ptr, ptr @working_cluster_rec, align 8
  %11 = call i32 @slurm_send_recv_controller_msg(ptr noundef nonnull %4, ptr noundef nonnull %5, ptr noundef %10) #9
  %12 = icmp slt i32 %11, 0
  br i1 %12, label %29, label %13

13:                                               ; preds = %3
  %14 = getelementptr inbounds nuw i8, ptr %5, i64 212
  %15 = load i16, ptr %14, align 4
  switch i16 %15, label %27 [
    i16 2056, label %16
    i16 8001, label %20
  ]

16:                                               ; preds = %13
  %17 = getelementptr inbounds nuw i8, ptr %5, i64 200
  %18 = load ptr, ptr %17, align 8
  %19 = load ptr, ptr %18, align 8
  store ptr %19, ptr %2, align 8
  store ptr null, ptr %18, align 8
  br label %29

20:                                               ; preds = %13
  %21 = getelementptr inbounds nuw i8, ptr %5, i64 200
  %22 = load ptr, ptr %21, align 8
  %23 = load i32, ptr %22, align 4
  call void @slurm_free_return_code_msg(ptr noundef nonnull %22) #9
  %.not = icmp eq i32 %23, 0
  br i1 %.not, label %26, label %24

24:                                               ; preds = %20
  %25 = tail call ptr @__errno_location() #10
  store i32 %23, ptr %25, align 4
  br label %29

26:                                               ; preds = %20
  store ptr null, ptr %2, align 8
  br label %29

27:                                               ; preds = %13
  %28 = tail call ptr @__errno_location() #10
  store i32 1000, ptr %28, align 4
  br label %29

29:                                               ; preds = %16, %26, %3, %27, %24
  %.0 = phi i32 [ -1, %27 ], [ -1, %24 ], [ -1, %3 ], [ 0, %26 ], [ 0, %16 ]
  call void @llvm.lifetime.end.p0(i64 16, ptr nonnull %6) #9
  call void @llvm.lifetime.end.p0(i64 424, ptr nonnull %5) #9
  call void @llvm.lifetime.end.p0(i64 424, ptr nonnull %4) #9
  ret i32 %.0
}